target datalayout = "e-m:e-p270:32:32-p271:32:32-p272:64:64-i64:64-i128:128-f80:128-n8:16:32:64-S128"
target triple = "x86_64-pc-linux-gnu"

%struct.passwd = type { ptr, ptr, i32, i32, ptr, ptr, ptr }

@.str = private unnamed_addr constant [44 x i8] c"could not look up effective user ID %ld: %s\00", align 1
@.str.1 = private unnamed_addr constant [20 x i8] c"user does not exist\00", align 1
@stderr = external global ptr, align 8
@.str.2 = private unnamed_addr constant [8 x i8] c"%s: %s\0A\00", align 1

; Function Attrs: nounwind uwtable
define ptr @get_user_name(ptr noundef %0) #0 {
  %2 = alloca ptr, align 8
  %3 = alloca ptr, align 8
  %4 = alloca ptr, align 8
  %5 = alloca i32, align 4
  %6 = alloca i32, align 4
  store ptr %0, ptr %3, align 8
  call void @llvm.lifetime.start.p0(i64 8, ptr %4) #6
  call void @llvm.lifetime.start.p0(i64 4, ptr %5) #6
  %7 = call i32 @geteuid() #6
  store i32 %7, ptr %5, align 4
  %8 = load ptr, ptr %3, align 8
  store ptr null, ptr %8, align 8
  %9 = call ptr @__errno_location() #7
  store i32 0, ptr %9, align 4
  %10 = load i32, ptr %5, align 4
  %11 = call ptr @getpwuid(i32 noundef %10)
  store ptr %11, ptr %4, align 8
  %12 = load ptr, ptr %4, align 8
  %13 = icmp ne ptr %12, null
  br i1 %13, label %29, label %14

14:                                               ; preds = %1
  %15 = load i32, ptr %5, align 4
  %16 = zext i32 %15 to i64
  %17 = call ptr @__errno_location() #7
  %18 = load i32, ptr %17, align 4
  %19 = icmp ne i32 %18, 0
  br i1 %19, label %20, label %24

20:                                               ; preds = %14
  %21 = call ptr @__errno_location() #7
  %22 = load i32, ptr %21, align 4
  %23 = call ptr @pg_strerror(i32 noundef %22)
  br label %25

24:                                               ; preds = %14
  br label %25

25:                                               ; preds = %24, %20
  %26 = phi ptr [ %23, %20 ], [ @.str.1, %24 ]
  %27 = call ptr (ptr, ...) @psprintf(ptr noundef @.str, i64 noundef %16, ptr noundef %26)
  %28 = load ptr, ptr %3, align 8
  store ptr %27, ptr %28, align 8
  store ptr null, ptr %2, align 8
  store i32 1, ptr %6, align 4
  br label %33

29:                                               ; preds = %1
  %30 = load ptr, ptr %4, align 8
  %31 = getelementptr inbounds nuw %struct.passwd, ptr %30, i32 0, i32 0
  %32 = load ptr, ptr %31, align 8
  store ptr %32, ptr %2, align 8
  store i32 1, ptr %6, align 4
  br label %33

33:                                               ; preds = %29, %25
  call void @llvm.lifetime.end.p0(i64 4, ptr %5) #6
  call void @llvm.lifetime.end.p0(i64 8, ptr %4) #6
  %34 = load ptr, ptr %2, align 8
  ret ptr %34
}

; Function Attrs: nocallback nofree nosync nounwind willreturn memory(argmem: readwrite)
declare void @llvm.lifetime.start.p0(i64 immarg, ptr captures(none)) #1

; Function Attrs: nounwind
declare i32 @geteuid() #2

; Function Attrs: nounwind willreturn memory(none)
declare ptr @__errno_location() #3

declare ptr @getpwuid(i32 noundef) #4

declare ptr @psprintf(ptr noundef, ...) #4

declare ptr @pg_strerror(i32 noundef) #4

; Function Attrs: nocallback nofree nosync nounwind willreturn memory(argmem: readwrite)
declare void @llvm.lifetime.end.p0(i64 immarg, ptr captures(none)) #1

; Function Attrs: nounwind uwtable
define ptr @get_user_name_or_exit(ptr noundef %0) #0 {
  %2 = alloca ptr, align 8
  %3 = alloca ptr, align 8
  %4 = alloca ptr, align 8
  store ptr %0, ptr %2, align 8
  call void @llvm.lifetime.start.p0(i64 8, ptr %3) #6
  call void @llvm.lifetime.start.p0(i64 8, ptr %4) #6
  %5 = call ptr @get_user_name(ptr noundef %4)
  store ptr %5, ptr %3, align 8
  %6 = load ptr, ptr %3, align 8
  %7 = icmp ne ptr %6, null
  br i1 %7, label %13, label %8

8:                                                ; preds = %1
  %9 = load ptr, ptr @stderr, align 8
  %10 = load ptr, ptr %2, align 8
  %11 = load ptr, ptr %4, align 8
  %12 = call i32 (ptr, ptr, ...) @pg_fprintf(ptr noundef %9, ptr noundef @.str.2, ptr noundef %10, ptr noundef %11)
  call void @exit(i32 noundef 1) #8
  unreachable

13:                                               ; preds = %1
  %14 = load ptr, ptr %3, align 8
  call void @llvm.lifetime.end.p0(i64 8, ptr %4) #6
  call void @llvm.lifetime.end.p0(i64 8, ptr %3) #6
  ret ptr %14
}

declare i32 @pg_fprintf(ptr noundef, ptr noundef, ...) #4

; Function Attrs: noreturn nounwind
declare void @exit(i32 noundef) #5


!llvm.module.flags = !{!0, !1, !2}

!0 = !{i32 1, !"wchar_size", i32 4}
!1 = !{i32 8, !"PIC Level", i32 2}
!2 = !{i32 7, !"uwtable", i32 2}
